target datalayout = "e-m:e-p270:32:32-p271:32:32-p272:64:64-i64:64-i128:128-f80:128-n8:16:32:64-S128"
target triple = "x86_64-pc-linux-gnu"

%struct.t_fileio = type { ptr, i8, i8, i8, %"class.std::filesystem::__cxx11::path", ptr, i32, i32, ptr, ptr, %struct.tMPI_Lock }
%"class.std::filesystem::__cxx11::path" = type { %"class.std::__cxx11::basic_string", %"struct.std::filesystem::__cxx11::path::_List" }
%"class.std::__cxx11::basic_string" = type { %"struct.std::__cxx11::basic_string<char>::_Alloc_hider", i64, %union.anon }
%"struct.std::__cxx11::basic_string<char>::_Alloc_hider" = type { ptr }
%union.anon = type { i64, [8 x i8] }
%"struct.std::filesystem::__cxx11::path::_List" = type { %"class.std::unique_ptr" }
%"class.std::unique_ptr" = type { %"struct.std::__uniq_ptr_data" }
%"struct.std::__uniq_ptr_data" = type { %"class.std::__uniq_ptr_impl" }
%"class.std::__uniq_ptr_impl" = type { %"class.std::tuple" }
%"class.std::tuple" = type { %"struct.std::_Tuple_impl" }
%"struct.std::_Tuple_impl" = type { %"struct.std::_Head_base.1" }
%"struct.std::_Head_base.1" = type { ptr }
%struct.tMPI_Lock = type { %struct.tMPI_Spinlock }
%struct.tMPI_Spinlock = type { i32, [60 x i8] }
%struct.XDR = type { i32, ptr, ptr, ptr, ptr, i32 }
%"struct.XDR::xdr_ops" = type { ptr, ptr, ptr, ptr, ptr, ptr, ptr, ptr, ptr, ptr }

; Function Attrs: mustprogress uwtable
define void @_Z14gmx_fio_unlockP8t_fileio(ptr noundef %0) #0 {
  %2 = alloca ptr, align 8
  store ptr %0, ptr %2, align 8, !tbaa !4
  %3 = load ptr, ptr %2, align 8, !tbaa !4
  %4 = getelementptr inbounds nuw %struct.t_fileio, ptr %3, i32 0, i32 10
  call void @_Z16tMPI_Lock_unlockP9tMPI_Lock(ptr noundef %4)
  ret void
}

; Function Attrs: mustprogress uwtable
define void @_Z12gmx_fio_lockP8t_fileio(ptr noundef %0) #0 {
  %2 = alloca ptr, align 8
  store ptr %0, ptr %2, align 8, !tbaa !4
  %3 = load ptr, ptr %2, align 8, !tbaa !4
  %4 = getelementptr inbounds nuw %struct.t_fileio, ptr %3, i32 0, i32 10
  call void @_Z14tMPI_Lock_lockP9tMPI_Lock(ptr noundef %4)
  ret void
}

; Function Attrs: mustprogress uwtable
define void @_Z14gmx_fio_rewindP8t_fileio(ptr noundef %0) #0 {
  %2 = alloca ptr, align 8
  store ptr %0, ptr %2, align 8, !tbaa !4
  %3 = load ptr, ptr %2, align 8, !tbaa !4
  call void @_Z12gmx_fio_lockP8t_fileio(ptr noundef %3)
  %4 = load ptr, ptr %2, align 8, !tbaa !4
  %5 = getelementptr inbounds nuw %struct.t_fileio, ptr %4, i32 0, i32 5
  %6 = load ptr, ptr %5, align 8, !tbaa !38
  %7 = icmp ne ptr %6, null
  br i1 %7, label %8, label %43

8:                                                ; preds = %1
  br label %9

9:                                                ; preds = %8
  %10 = load ptr, ptr %2, align 8, !tbaa !4
  %11 = getelementptr inbounds nuw %struct.t_fileio, ptr %10, i32 0, i32 5
  %12 = load ptr, ptr %11, align 8, !tbaa !38
  %13 = getelementptr inbounds nuw %struct.XDR, ptr %12, i32 0, i32 1
  %14 = load ptr, ptr %13, align 8, !tbaa !105
  %15 = getelementptr inbounds nuw %"struct.XDR::xdr_ops", ptr %14, i32 0, i32 7
  %16 = load ptr, ptr %15, align 8, !tbaa !108
  %17 = icmp ne ptr %16, null
  br i1 %17, label %18, label %29

18:                                               ; preds = %9
  %19 = load ptr, ptr %2, align 8, !tbaa !4
  %20 = getelementptr inbounds nuw %struct.t_fileio, ptr %19, i32 0, i32 5
  %21 = load ptr, ptr %20, align 8, !tbaa !38
  %22 = getelementptr inbounds nuw %struct.XDR, ptr %21, i32 0, i32 1
  %23 = load ptr, ptr %22, align 8, !tbaa !105
  %24 = getelementptr inbounds nuw %"struct.XDR::xdr_ops", ptr %23, i32 0, i32 7
  %25 = load ptr, ptr %24, align 8, !tbaa !108
  %26 = load ptr, ptr %2, align 8, !tbaa !4
  %27 = getelementptr inbounds nuw %struct.t_fileio, ptr %26, i32 0, i32 5
  %28 = load ptr, ptr %27, align 8, !tbaa !38
  call void %25(ptr noundef %28)
  br label %29

29:                                               ; preds = %18, %9
  br label %30

30:                                               ; preds = %29
  %31 = load ptr, ptr %2, align 8, !tbaa !4
  %32 = getelementptr inbounds nuw %struct.t_fileio, ptr %31, i32 0, i32 0
  %33 = load ptr, ptr %32, align 8, !tbaa !14
  call void @_Z7frewindP8_IO_FILE(ptr noundef %33)
  %34 = load ptr, ptr %2, align 8, !tbaa !4
  %35 = getelementptr inbounds nuw %struct.t_fileio, ptr %34, i32 0, i32 5
  %36 = load ptr, ptr %35, align 8, !tbaa !38
  %37 = load ptr, ptr %2, align 8, !tbaa !4
  %38 = getelementptr inbounds nuw %struct.t_fileio, ptr %37, i32 0, i32 0
  %39 = load ptr, ptr %38, align 8, !tbaa !14
  %40 = load ptr, ptr %2, align 8, !tbaa !4
  %41 = getelementptr inbounds nuw %struct.t_fileio, ptr %40, i32 0, i32 6
  %42 = load i32, ptr %41, align 8, !tbaa !39
  call void @_Z15xdrstdio_createP3XDRP8_IO_FILE6xdr_op(ptr noundef %36, ptr noundef %39, i32 noundef %42)
  br label %47

43:                                               ; preds = %1
  %44 = load ptr, ptr %2, align 8, !tbaa !4
  %45 = getelementptr inbounds nuw %struct.t_fileio, ptr %44, i32 0, i32 0
  %46 = load ptr, ptr %45, align 8, !tbaa !14
  call void @_Z7frewindP8_IO_FILE(ptr noundef %46)
  br label %47

47:                                               ; preds = %43, %30
  %48 = load ptr, ptr %2, align 8, !tbaa !4
  call void @_Z14gmx_fio_unlockP8t_fileio(ptr noundef %48)
  ret void
}