; Function Attrs: mustprogress uwtable
define void @_Z14gmx_fio_rewindP8t_fileio(ptr noundef %0) local_unnamed_addr #0 {
  %2 = getelementptr inbounds nuw i8, ptr %0, i64 88
  tail call void @_Z14tMPI_Lock_lockP9tMPI_Lock(ptr noundef nonnull %2)
  %3 = getelementptr inbounds nuw i8, ptr %0, i64 56
  %4 = load ptr, ptr %3, align 8, !tbaa !33
  %.not = icmp eq ptr %4, null
  br i1 %.not, label %17, label %5

5:                                                ; preds = %1
  %6 = getelementptr inbounds nuw i8, ptr %4, i64 8
  %7 = load ptr, ptr %6, align 8, !tbaa !46
  %8 = getelementptr inbounds nuw i8, ptr %7, i64 56
  %9 = load ptr, ptr %8, align 8, !tbaa !49
  %.not12 = icmp eq ptr %9, null
  br i1 %.not12, label %11, label %10

10:                                               ; preds = %5
  tail call void %9(ptr noundef nonnull %4)
  br label %11

11:                                               ; preds = %5, %10
  %12 = load ptr, ptr %0, align 8, !tbaa !14
  tail call void @_Z7frewindP8_IO_FILE(ptr noundef %12)
  %13 = load ptr, ptr %3, align 8, !tbaa !33
  %14 = load ptr, ptr %0, align 8, !tbaa !14
  %15 = getelementptr inbounds nuw i8, ptr %0, i64 64
  %16 = load i32, ptr %15, align 8, !tbaa !36
  tail call void @_Z15xdrstdio_createP3XDRP8_IO_FILE6xdr_op(ptr noundef %13, ptr noundef %14, i32 noundef %16)
  br label %19

17:                                               ; preds = %1
  %18 = load ptr, ptr %0, align 8, !tbaa !14
  tail call void @_Z7frewindP8_IO_FILE(ptr noundef %18)
  br label %19

19:                                               ; preds = %17, %11
  tail call void @_Z16tMPI_Lock_unlockP9tMPI_Lock(ptr noundef nonnull %2)
  ret void
}